target datalayout = "e-m:e-p270:32:32-p271:32:32-p272:64:64-i64:64-i128:128-f80:128-n8:16:32:64-S128"
target triple = "x86_64-unknown-linux-gnu"

; Function Attrs: nounwind sspstrong uwtable
define hidden i32 @FLAC__bitwriter_write_utf8_uint32(ptr noundef %bw, i32 noundef %val) #0 {
entry:
  %retval = alloca i32, align 4
  %bw.addr = alloca ptr, align 8
  %val.addr = alloca i32, align 4
  %ok = alloca i32, align 4
  store ptr %bw, ptr %bw.addr, align 8
  store i32 %val, ptr %val.addr, align 4
  store i32 1, ptr %ok, align 4
  %0 = load i32, ptr %val.addr, align 4
  %and = and i32 %0, -2147483648
  %cmp = icmp ne i32 %and, 0
  br i1 %cmp, label %if.then, label %if.end

if.then:                                          ; preds = %entry
  store i32 0, ptr %retval, align 4
  br label %return

if.end:                                           ; preds = %entry
  %1 = load i32, ptr %val.addr, align 4
  %cmp1 = icmp ult i32 %1, 128
  br i1 %cmp1, label %if.then2, label %if.else

if.then2:                                         ; preds = %if.end
  %2 = load ptr, ptr %bw.addr, align 8
  %3 = load i32, ptr %val.addr, align 4
  %call = call i32 @FLAC__bitwriter_write_raw_uint32_nocheck(ptr noundef %2, i32 noundef %3, i32 noundef 8)
  store i32 %call, ptr %retval, align 4
  br label %return

if.else:                                          ; preds = %if.end
  %4 = load i32, ptr %val.addr, align 4
  %cmp3 = icmp ult i32 %4, 2048
  br i1 %cmp3, label %if.then4, label %if.else11

if.then4:                                         ; preds = %if.else
  %5 = load ptr, ptr %bw.addr, align 8
  %6 = load i32, ptr %val.addr, align 4
  %shr = lshr i32 %6, 6
  %or = or i32 192, %shr
  %call5 = call i32 @FLAC__bitwriter_write_raw_uint32_nocheck(ptr noundef %5, i32 noundef %or, i32 noundef 8)
  %7 = load i32, ptr %ok, align 4
  %and6 = and i32 %7, %call5
  store i32 %and6, ptr %ok, align 4
  %8 = load ptr, ptr %bw.addr, align 8
  %9 = load i32, ptr %val.addr, align 4
  %and7 = and i32 %9, 63
  %or8 = or i32 128, %and7
  %call9 = call i32 @FLAC__bitwriter_write_raw_uint32_nocheck(ptr noundef %8, i32 noundef %or8, i32 noundef 8)
  %10 = load i32, ptr %ok, align 4
  %and10 = and i32 %10, %call9
  store i32 %and10, ptr %ok, align 4
  br label %if.end106

if.else11:                                        ; preds = %if.else
  %11 = load i32, ptr %val.addr, align 4
  %cmp12 = icmp ult i32 %11, 65536
  br i1 %cmp12, label %if.then13, label %if.else27

if.then13:                                        ; preds = %if.else11
  %12 = load ptr, ptr %bw.addr, align 8
  %13 = load i32, ptr %val.addr, align 4
  %shr14 = lshr i32 %13, 12
  %or15 = or i32 224, %shr14
  %call16 = call i32 @FLAC__bitwriter_write_raw_uint32_nocheck(ptr noundef %12, i32 noundef %or15, i32 noundef 8)
  %14 = load i32, ptr %ok, align 4
  %and17 = and i32 %14, %call16
  store i32 %and17, ptr %ok, align 4
  %15 = load ptr, ptr %bw.addr, align 8
  %16 = load i32, ptr %val.addr, align 4
  %shr18 = lshr i32 %16, 6
  %and19 = and i32 %shr18, 63
  %or20 = or i32 128, %and19
  %call21 = call i32 @FLAC__bitwriter_write_raw_uint32_nocheck(ptr noundef %15, i32 noundef %or20, i32 noundef 8)
  %17 = load i32, ptr %ok, align 4
  %and22 = and i32 %17, %call21
  store i32 %and22, ptr %ok, align 4
  %18 = load ptr, ptr %bw.addr, align 8
  %19 = load i32, ptr %val.addr, align 4
  %and23 = and i32 %19, 63
  %or24 = or i32 128, %and23
  %call25 = call i32 @FLAC__bitwriter_write_raw_uint32_nocheck(ptr noundef %18, i32 noundef %or24, i32 noundef 8)
  %20 = load i32, ptr %ok, align 4
  %and26 = and i32 %20, %call25
  store i32 %and26, ptr %ok, align 4
  br label %if.end105

if.else27:                                        ; preds = %if.else11
  %21 = load i32, ptr %val.addr, align 4
  %cmp28 = icmp ult i32 %21, 2097152
  br i1 %cmp28, label %if.then29, label %if.else48

if.then29:                                        ; preds = %if.else27
  %22 = load ptr, ptr %bw.addr, align 8
  %23 = load i32, ptr %val.addr, align 4
  %shr30 = lshr i32 %23, 18
  %or31 = or i32 240, %shr30
  %call32 = call i32 @FLAC__bitwriter_write_raw_uint32_nocheck(ptr noundef %22, i32 noundef %or31, i32 noundef 8)
  %24 = load i32, ptr %ok, align 4
  %and33 = and i32 %24, %call32
  store i32 %and33, ptr %ok, align 4
  %25 = load ptr, ptr %bw.addr, align 8
  %26 = load i32, ptr %val.addr, align 4
  %shr34 = lshr i32 %26, 12
  %and35 = and i32 %shr34, 63
  %or36 = or i32 128, %and35
  %call37 = call i32 @FLAC__bitwriter_write_raw_uint32_nocheck(ptr noundef %25, i32 noundef %or36, i32 noundef 8)
  %27 = load i32, ptr %ok, align 4
  %and38 = and i32 %27, %call37
  store i32 %and38, ptr %ok, align 4
  %28 = load ptr, ptr %bw.addr, align 8
  %29 = load i32, ptr %val.addr, align 4
  %shr39 = lshr i32 %29, 6
  %and40 = and i32 %shr39, 63
  %or41 = or i32 128, %and40
  %call42 = call i32 @FLAC__bitwriter_write_raw_uint32_nocheck(ptr noundef %28, i32 noundef %or41, i32 noundef 8)
  %30 = load i32, ptr %ok, align 4
  %and43 = and i32 %30, %call42
  store i32 %and43, ptr %ok, align 4
  %31 = load ptr, ptr %bw.addr, align 8
  %32 = load i32, ptr %val.addr, align 4
  %and44 = and i32 %32, 63
  %or45 = or i32 128, %and44
  %call46 = call i32 @FLAC__bitwriter_write_raw_uint32_nocheck(ptr noundef %31, i32 noundef %or45, i32 noundef 8)
  %33 = load i32, ptr %ok, align 4
  %and47 = and i32 %33, %call46
  store i32 %and47, ptr %ok, align 4
  br label %if.end104

if.else48:                                        ; preds = %if.else27
  %34 = load i32, ptr %val.addr, align 4
  %cmp49 = icmp ult i32 %34, 67108864
  br i1 %cmp49, label %if.then50, label %if.else74

if.then50:                                        ; preds = %if.else48
  %35 = load ptr, ptr %bw.addr, align 8
  %36 = load i32, ptr %val.addr, align 4
  %shr51 = lshr i32 %36, 24
  %or52 = or i32 248, %shr51
  %call53 = call i32 @FLAC__bitwriter_write_raw_uint32_nocheck(ptr noundef %35, i32 noundef %or52, i32 noundef 8)
  %37 = load i32, ptr %ok, align 4
  %and54 = and i32 %37, %call53
  store i32 %and54, ptr %ok, align 4
  %38 = load ptr, ptr %bw.addr, align 8
  %39 = load i32, ptr %val.addr, align 4
  %shr55 = lshr i32 %39, 18
  %and56 = and i32 %shr55, 63
  %or57 = or i32 128, %and56
  %call58 = call i32 @FLAC__bitwriter_write_raw_uint32_nocheck(ptr noundef %38, i32 noundef %or57, i32 noundef 8)
  %40 = load i32, ptr %ok, align 4
  %and59 = and i32 %40, %call58
  store i32 %and59, ptr %ok, align 4
  %41 = load ptr, ptr %bw.addr, align 8
  %42 = load i32, ptr %val.addr, align 4
  %shr60 = lshr i32 %42, 12
  %and61 = and i32 %shr60, 63
  %or62 = or i32 128, %and61
  %call63 = call i32 @FLAC__bitwriter_write_raw_uint32_nocheck(ptr noundef %41, i32 noundef %or62, i32 noundef 8)
  %43 = load i32, ptr %ok, align 4
  %and64 = and i32 %43, %call63
  store i32 %and64, ptr %ok, align 4
  %44 = load ptr, ptr %bw.addr, align 8
  %45 = load i32, ptr %val.addr, align 4
  %shr65 = lshr i32 %45, 6
  %and66 = and i32 %shr65, 63
  %or67 = or i32 128, %and66
  %call68 = call i32 @FLAC__bitwriter_write_raw_uint32_nocheck(ptr noundef %44, i32 noundef %or67, i32 noundef 8)
  %46 = load i32, ptr %ok, align 4
  %and69 = and i32 %46, %call68
  store i32 %and69, ptr %ok, align 4
  %47 = load ptr, ptr %bw.addr, align 8
  %48 = load i32, ptr %val.addr, align 4
  %and70 = and i32 %48, 63
  %or71 = or i32 128, %and70
  %call72 = call i32 @FLAC__bitwriter_write_raw_uint32_nocheck(ptr noundef %47, i32 noundef %or71, i32 noundef 8)
  %49 = load i32, ptr %ok, align 4
  %and73 = and i32 %49, %call72
  store i32 %and73, ptr %ok, align 4
  br label %if.end103

if.else74:                                        ; preds = %if.else48
  %50 = load ptr, ptr %bw.addr, align 8
  %51 = load i32, ptr %val.addr, align 4
  %shr75 = lshr i32 %51, 30
  %or76 = or i32 252, %shr75
  %call77 = call i32 @FLAC__bitwriter_write_raw_uint32_nocheck(ptr noundef %50, i32 noundef %or76, i32 noundef 8)
  %52 = load i32, ptr %ok, align 4
  %and78 = and i32 %52, %call77
  store i32 %and78, ptr %ok, align 4
  %53 = load ptr, ptr %bw.addr, align 8
  %54 = load i32, ptr %val.addr, align 4
  %shr79 = lshr i32 %54, 24
  %and80 = and i32 %shr79, 63
  %or81 = or i32 128, %and80
  %call82 = call i32 @FLAC__bitwriter_write_raw_uint32_nocheck(ptr noundef %53, i32 noundef %or81, i32 noundef 8)
  %55 = load i32, ptr %ok, align 4
  %and83 = and i32 %55, %call82
  store i32 %and83, ptr %ok, align 4
  %56 = load ptr, ptr %bw.addr, align 8
  %57 = load i32, ptr %val.addr, align 4
  %shr84 = lshr i32 %57, 18
  %and85 = and i32 %shr84, 63
  %or86 = or i32 128, %and85
  %call87 = call i32 @FLAC__bitwriter_write_raw_uint32_nocheck(ptr noundef %56, i32 noundef %or86, i32 noundef 8)
  %58 = load i32, ptr %ok, align 4
  %and88 = and i32 %58, %call87
  store i32 %and88, ptr %ok, align 4
  %59 = load ptr, ptr %bw.addr, align 8
  %60 = load i32, ptr %val.addr, align 4
  %shr89 = lshr i32 %60, 12
  %and90 = and i32 %shr89, 63
  %or91 = or i32 128, %and90
  %call92 = call i32 @FLAC__bitwriter_write_raw_uint32_nocheck(ptr noundef %59, i32 noundef %or91, i32 noundef 8)
  %61 = load i32, ptr %ok, align 4
  %and93 = and i32 %61, %call92
  store i32 %and93, ptr %ok, align 4
  %62 = load ptr, ptr %bw.addr, align 8
  %63 = load i32, ptr %val.addr, align 4
  %shr94 = lshr i32 %63, 6
  %and95 = and i32 %shr94, 63
  %or96 = or i32 128, %and95
  %call97 = call i32 @FLAC__bitwriter_write_raw_uint32_nocheck(ptr noundef %62, i32 noundef %or96, i32 noundef 8)
  %64 = load i32, ptr %ok, align 4
  %and98 = and i32 %64, %call97
  store i32 %and98, ptr %ok, align 4
  %65 = load ptr, ptr %bw.addr, align 8
  %66 = load i32, ptr %val.addr, align 4
  %and99 = and i32 %66, 63
  %or100 = or i32 128, %and99
  %call101 = call i32 @FLAC__bitwriter_write_raw_uint32_nocheck(ptr noundef %65, i32 noundef %or100, i32 noundef 8)
  %67 = load i32, ptr %ok, align 4
  %and102 = and i32 %67, %call101
  store i32 %and102, ptr %ok, align 4
  br label %if.end103

if.end103:                                        ; preds = %if.else74, %if.then50
  br label %if.end104

if.end104:                                        ; preds = %if.end103, %if.then29
  br label %if.end105

if.end105:                                        ; preds = %if.end104, %if.then13
  br label %if.end106

if.end106:                                        ; preds = %if.end105, %if.then4
  br label %if.end107

if.end107:                                        ; preds = %if.end106
  %68 = load i32, ptr %ok, align 4
  store i32 %68, ptr %retval, align 4
  br label %return

return:                                           ; preds = %if.end107, %if.then2, %if.then
  %69 = load i32, ptr %retval, align 4
  ret i32 %69
}