; Function Attrs: mustprogress nounwind sspstrong willreturn uwtable
define hidden range(i32 0, 2) i32 @FLAC__bitwriter_write_utf8_uint32(ptr noundef %bw, i32 noundef %val) local_unnamed_addr #2 {
entry:
  %cmp.not = icmp sgt i32 %val, -1
  br i1 %cmp.not, label %if.end, label %return

if.end:                                           ; preds = %entry
  %cmp1 = icmp samesign ult i32 %val, 128
  br i1 %cmp1, label %if.then2, label %if.else

if.then2:                                         ; preds = %if.end
  %call = tail call fastcc i32 @FLAC__bitwriter_write_raw_uint32_nocheck(ptr noundef %bw, i32 noundef %val, i32 noundef 8)
  br label %return

if.else:                                          ; preds = %if.end
  %cmp3 = icmp samesign ult i32 %val, 2048
  br i1 %cmp3, label %if.then4, label %if.else11

if.then4:                                         ; preds = %if.else
  %shr = lshr i32 %val, 6
  %or = or disjoint i32 %shr, 192
  %call5 = tail call fastcc i32 @FLAC__bitwriter_write_raw_uint32_nocheck(ptr noundef %bw, i32 noundef %or, i32 noundef 8)
  %and7 = and i32 %val, 63
  %or8 = or disjoint i32 %and7, 128
  %call9 = tail call fastcc i32 @FLAC__bitwriter_write_raw_uint32_nocheck(ptr noundef %bw, i32 noundef %or8, i32 noundef 8)
  %and10 = and i32 %call9, %call5
  br label %return

if.else11:                                        ; preds = %if.else
  %cmp12 = icmp samesign ult i32 %val, 65536
  br i1 %cmp12, label %if.then13, label %if.else27

if.then13:                                        ; preds = %if.else11
  %shr14 = lshr i32 %val, 12
  %or15 = or disjoint i32 %shr14, 224
  %call16 = tail call fastcc i32 @FLAC__bitwriter_write_raw_uint32_nocheck(ptr noundef %bw, i32 noundef %or15, i32 noundef 8)
  %shr18 = lshr i32 %val, 6
  %and19 = and i32 %shr18, 63
  %or20 = or disjoint i32 %and19, 128
  %call21 = tail call fastcc i32 @FLAC__bitwriter_write_raw_uint32_nocheck(ptr noundef %bw, i32 noundef %or20, i32 noundef 8)
  %and22 = and i32 %call21, %call16
  %and23 = and i32 %val, 63
  %or24 = or disjoint i32 %and23, 128
  %call25 = tail call fastcc i32 @FLAC__bitwriter_write_raw_uint32_nocheck(ptr noundef %bw, i32 noundef %or24, i32 noundef 8)
  %and26 = and i32 %and22, %call25
  br label %return

if.else27:                                        ; preds = %if.else11
  %cmp28 = icmp samesign ult i32 %val, 2097152
  br i1 %cmp28, label %if.then29, label %if.else48

if.then29:                                        ; preds = %if.else27
  %shr30 = lshr i32 %val, 18
  %or31 = or disjoint i32 %shr30, 240
  %call32 = tail call fastcc i32 @FLAC__bitwriter_write_raw_uint32_nocheck(ptr noundef %bw, i32 noundef %or31, i32 noundef 8)
  %shr34 = lshr i32 %val, 12
  %and35 = and i32 %shr34, 63
  %or36 = or disjoint i32 %and35, 128
  %call37 = tail call fastcc i32 @FLAC__bitwriter_write_raw_uint32_nocheck(ptr noundef %bw, i32 noundef %or36, i32 noundef 8)
  %and38 = and i32 %call37, %call32
  %shr39 = lshr i32 %val, 6
  %and40 = and i32 %shr39, 63
  %or41 = or disjoint i32 %and40, 128
  %call42 = tail call fastcc i32 @FLAC__bitwriter_write_raw_uint32_nocheck(ptr noundef %bw, i32 noundef %or41, i32 noundef 8)
  %and43 = and i32 %and38, %call42
  %and44 = and i32 %val, 63
  %or45 = or disjoint i32 %and44, 128
  %call46 = tail call fastcc i32 @FLAC__bitwriter_write_raw_uint32_nocheck(ptr noundef %bw, i32 noundef %or45, i32 noundef 8)
  %and47 = and i32 %and43, %call46
  br label %return

if.else48:                                        ; preds = %if.else27
  %cmp49 = icmp samesign ult i32 %val, 67108864
  br i1 %cmp49, label %if.then50, label %if.else74

if.then50:                                        ; preds = %if.else48
  %shr51 = lshr i32 %val, 24
  %or52 = or disjoint i32 %shr51, 248
  %call53 = tail call fastcc i32 @FLAC__bitwriter_write_raw_uint32_nocheck(ptr noundef %bw, i32 noundef %or52, i32 noundef 8)
  %shr55 = lshr i32 %val, 18
  %and56 = and i32 %shr55, 63
  %or57 = or disjoint i32 %and56, 128
  %call58 = tail call fastcc i32 @FLAC__bitwriter_write_raw_uint32_nocheck(ptr noundef %bw, i32 noundef %or57, i32 noundef 8)
  %and59 = and i32 %call58, %call53
  %shr60 = lshr i32 %val, 12
  %and61 = and i32 %shr60, 63
  %or62 = or disjoint i32 %and61, 128
  %call63 = tail call fastcc i32 @FLAC__bitwriter_write_raw_uint32_nocheck(ptr noundef %bw, i32 noundef %or62, i32 noundef 8)
  %and64 = and i32 %and59, %call63
  %shr65 = lshr i32 %val, 6
  %and66 = and i32 %shr65, 63
  %or67 = or disjoint i32 %and66, 128
  %call68 = tail call fastcc i32 @FLAC__bitwriter_write_raw_uint32_nocheck(ptr noundef %bw, i32 noundef %or67, i32 noundef 8)
  %and69 = and i32 %and64, %call68
  %and70 = and i32 %val, 63
  %or71 = or disjoint i32 %and70, 128
  %call72 = tail call fastcc i32 @FLAC__bitwriter_write_raw_uint32_nocheck(ptr noundef %bw, i32 noundef %or71, i32 noundef 8)
  %and73 = and i32 %and69, %call72
  br label %return

if.else74:                                        ; preds = %if.else48
  %shr75 = lshr i32 %val, 30
  %or76 = or disjoint i32 %shr75, 252
  %call77 = tail call fastcc i32 @FLAC__bitwriter_write_raw_uint32_nocheck(ptr noundef %bw, i32 noundef %or76, i32 noundef 8)
  %shr79 = lshr i32 %val, 24
  %and80 = and i32 %shr79, 63
  %or81 = or disjoint i32 %and80, 128
  %call82 = tail call fastcc i32 @FLAC__bitwriter_write_raw_uint32_nocheck(ptr noundef %bw, i32 noundef %or81, i32 noundef 8)
  %and83 = and i32 %call82, %call77
  %shr84 = lshr i32 %val, 18
  %and85 = and i32 %shr84, 63
  %or86 = or disjoint i32 %and85, 128
  %call87 = tail call fastcc i32 @FLAC__bitwriter_write_raw_uint32_nocheck(ptr noundef %bw, i32 noundef %or86, i32 noundef 8)
  %and88 = and i32 %and83, %call87
  %shr89 = lshr i32 %val, 12
  %and90 = and i32 %shr89, 63
  %or91 = or disjoint i32 %and90, 128
  %call92 = tail call fastcc i32 @FLAC__bitwriter_write_raw_uint32_nocheck(ptr noundef %bw, i32 noundef %or91, i32 noundef 8)
  %and93 = and i32 %and88, %call92
  %shr94 = lshr i32 %val, 6
  %and95 = and i32 %shr94, 63
  %or96 = or disjoint i32 %and95, 128
  %call97 = tail call fastcc i32 @FLAC__bitwriter_write_raw_uint32_nocheck(ptr noundef %bw, i32 noundef %or96, i32 noundef 8)
  %and98 = and i32 %and93, %call97
  %and99 = and i32 %val, 63
  %or100 = or disjoint i32 %and99, 128
  %call101 = tail call fastcc i32 @FLAC__bitwriter_write_raw_uint32_nocheck(ptr noundef %bw, i32 noundef %or100, i32 noundef 8)
  %and102 = and i32 %and98, %call101
  br label %return

return:                                           ; preds = %if.then13, %if.then50, %if.else74, %if.then29, %if.then4, %entry, %if.then2
  %retval.0 = phi i32 [ %call, %if.then2 ], [ 0, %entry ], [ %and10, %if.then4 ], [ %and26, %if.then13 ], [ %and47, %if.then29 ], [ %and73, %if.then50 ], [ %and102, %if.else74 ]
  ret i32 %retval.0
}